target datalayout = "e-m:e-p270:32:32-p271:32:32-p272:64:64-i64:64-i128:128-f80:128-n8:16:32:64-S128"
target triple = "x86_64-pc-linux-gnu"

%struct.Emb_Man_t_ = type { ptr, ptr, ptr, i32, i32, i32, ptr, i32, i32, ptr, i32, i32, ptr, ptr, ptr, ptr }

; Function Attrs: inlinehint nounwind uwtable
define internal i32 @Abc_MaxInt(i32 noundef %0, i32 noundef %1) #4 {
  %3 = alloca i32, align 4
  %4 = alloca i32, align 4
  store i32 %0, ptr %3, align 4, !tbaa !12
  store i32 %1, ptr %4, align 4, !tbaa !12
  %5 = load i32, ptr %3, align 4, !tbaa !12
  %6 = load i32, ptr %4, align 4, !tbaa !12
  %7 = icmp sgt i32 %5, %6
  br i1 %7, label %8, label %10

8:                                                ; preds = %2
  %9 = load i32, ptr %3, align 4, !tbaa !12
  br label %12

10:                                               ; preds = %2
  %11 = load i32, ptr %4, align 4, !tbaa !12
  br label %12

12:                                               ; preds = %10, %8
  %13 = phi i32 [ %9, %8 ], [ %11, %10 ]
  ret i32 %13
}

; Function Attrs: inlinehint nounwind uwtable
define internal i32 @Abc_MinInt(i32 noundef %0, i32 noundef %1) #4 {
  %3 = alloca i32, align 4
  %4 = alloca i32, align 4
  store i32 %0, ptr %3, align 4, !tbaa !12
  store i32 %1, ptr %4, align 4, !tbaa !12
  %5 = load i32, ptr %3, align 4, !tbaa !12
  %6 = load i32, ptr %4, align 4, !tbaa !12
  %7 = icmp slt i32 %5, %6
  br i1 %7, label %8, label %10

8:                                                ; preds = %2
  %9 = load i32, ptr %3, align 4, !tbaa !12
  br label %12

10:                                               ; preds = %2
  %11 = load i32, ptr %4, align 4, !tbaa !12
  br label %12

12:                                               ; preds = %10, %8
  %13 = phi i32 [ %9, %8 ], [ %11, %10 ]
  ret i32 %13
}

; Function Attrs: inlinehint nounwind uwtable
define internal ptr @Emb_ManSol(ptr noundef %0, i32 noundef %1) #4 {
  %3 = alloca ptr, align 8
  %4 = alloca i32, align 4
  store ptr %0, ptr %3, align 8, !tbaa !15
  store i32 %1, ptr %4, align 4, !tbaa !12
  %5 = load ptr, ptr %3, align 8, !tbaa !15
  %6 = getelementptr inbounds nuw %struct.Emb_Man_t_, ptr %5, i32 0, i32 14
  %7 = load ptr, ptr %6, align 8, !tbaa !88
  %8 = load i32, ptr %4, align 4, !tbaa !12
  %9 = load ptr, ptr %3, align 8, !tbaa !15
  %10 = getelementptr inbounds nuw %struct.Emb_Man_t_, ptr %9, i32 0, i32 3
  %11 = load i32, ptr %10, align 8, !tbaa !32
  %12 = mul nsw i32 %8, %11
  %13 = sext i32 %12 to i64
  %14 = getelementptr inbounds float, ptr %7, i64 %13
  ret ptr %14
}

; Function Attrs: nounwind uwtable
define void @Emb_ManDerivePlacement(ptr noundef %0, i32 noundef %1) #0 {
  %3 = alloca ptr, align 8
  %4 = alloca i32, align 4
  %5 = alloca ptr, align 8
  %6 = alloca ptr, align 8
  %7 = alloca float, align 4
  %8 = alloca float, align 4
  %9 = alloca float, align 4
  %10 = alloca float, align 4
  %11 = alloca float, align 4
  %12 = alloca float, align 4
  %13 = alloca ptr, align 8
  %14 = alloca ptr, align 8
  %15 = alloca i32, align 4
  %16 = alloca i32, align 4
  store ptr %0, ptr %3, align 8, !tbaa !15
  store i32 %1, ptr %4, align 4, !tbaa !12
  call void @llvm.lifetime.start.p0(i64 8, ptr %5) #12
  call void @llvm.lifetime.start.p0(i64 8, ptr %6) #12
  call void @llvm.lifetime.start.p0(i64 4, ptr %7) #12
  call void @llvm.lifetime.start.p0(i64 4, ptr %8) #12
  call void @llvm.lifetime.start.p0(i64 4, ptr %9) #12
  call void @llvm.lifetime.start.p0(i64 4, ptr %10) #12
  call void @llvm.lifetime.start.p0(i64 4, ptr %11) #12
  call void @llvm.lifetime.start.p0(i64 4, ptr %12) #12
  call void @llvm.lifetime.start.p0(i64 8, ptr %13) #12
  call void @llvm.lifetime.start.p0(i64 8, ptr %14) #12
  call void @llvm.lifetime.start.p0(i64 4, ptr %15) #12
  %17 = load i32, ptr %4, align 4, !tbaa !12
  %18 = icmp ne i32 %17, 2
  br i1 %18, label %19, label %20

19:                                               ; preds = %2
  store i32 1, ptr %16, align 4
  br label %261

20:                                               ; preds = %2
  store float 1.000000e+09, ptr %9, align 4, !tbaa !110
  store float -1.000000e+09, ptr %7, align 4, !tbaa !110
  %21 = load ptr, ptr %3, align 8, !tbaa !15
  %22 = call ptr @Emb_ManSol(ptr noundef %21, i32 noundef 0)
  store ptr %22, ptr %5, align 8, !tbaa !107
  store i32 0, ptr %15, align 4, !tbaa !12
  br label %23

23:                                               ; preds = %50, %20
  %24 = load i32, ptr %15, align 4, !tbaa !12
  %25 = load ptr, ptr %3, align 8, !tbaa !15
  %26 = getelementptr inbounds nuw %struct.Emb_Man_t_, ptr %25, i32 0, i32 3
  %27 = load i32, ptr %26, align 8, !tbaa !32
  %28 = icmp slt i32 %24, %27
  br i1 %28, label %29, label %53

29:                                               ; preds = %23
  %30 = load float, ptr %9, align 4, !tbaa !110
  %31 = fptosi float %30 to i32
  %32 = load ptr, ptr %5, align 8, !tbaa !107
  %33 = load i32, ptr %15, align 4, !tbaa !12
  %34 = sext i32 %33 to i64
  %35 = getelementptr inbounds float, ptr %32, i64 %34
  %36 = load float, ptr %35, align 4, !tbaa !110
  %37 = fptosi float %36 to i32
  %38 = call i32 @Abc_MinInt(i32 noundef %31, i32 noundef %37)
  %39 = sitofp i32 %38 to float
  store float %39, ptr %9, align 4, !tbaa !110
  %40 = load float, ptr %7, align 4, !tbaa !110
  %41 = fptosi float %40 to i32
  %42 = load ptr, ptr %5, align 8, !tbaa !107
  %43 = load i32, ptr %15, align 4, !tbaa !12
  %44 = sext i32 %43 to i64
  %45 = getelementptr inbounds float, ptr %42, i64 %44
  %46 = load float, ptr %45, align 4, !tbaa !110
  %47 = fptosi float %46 to i32
  %48 = call i32 @Abc_MaxInt(i32 noundef %41, i32 noundef %47)
  %49 = sitofp i32 %48 to float
  store float %49, ptr %7, align 4, !tbaa !110
  br label %50

50:                                               ; preds = %29
  %51 = load i32, ptr %15, align 4, !tbaa !12
  %52 = add nsw i32 %51, 1
  store i32 %52, ptr %15, align 4, !tbaa !12
  br label %23, !llvm.loop !145

53:                                               ; preds = %23
  %54 = load float, ptr %7, align 4, !tbaa !110
  %55 = load float, ptr %9, align 4, !tbaa !110
  %56 = fsub float %54, %55
  %57 = fpext float %56 to double
  %58 = fdiv double 3.276700e+04, %57
  %59 = fptrunc double %58 to float
  store float %59, ptr %11, align 4, !tbaa !110
  store i32 0, ptr %15, align 4, !tbaa !12
  br label %60

60:                                               ; preds = %93, %53
  %61 = load i32, ptr %15, align 4, !tbaa !12
  %62 = load ptr, ptr %3, align 8, !tbaa !15
  %63 = getelementptr inbounds nuw %struct.Emb_Man_t_, ptr %62, i32 0, i32 3
  %64 = load i32, ptr %63, align 8, !tbaa !32
  %65 = icmp slt i32 %61, %64
  br i1 %65, label %66, label %96

66:                                               ; preds = %60
  %67 = load ptr, ptr %5, align 8, !tbaa !107
  %68 = load i32, ptr %15, align 4, !tbaa !12
  %69 = sext i32 %68 to i64
  %70 = getelementptr inbounds float, ptr %67, i64 %69
  %71 = load float, ptr %70, align 4, !tbaa !110
  %72 = fpext float %71 to double
  %73 = fcmp une double %72, 0.000000e+00
  br i1 %73, label %74, label %85

74:                                               ; preds = %66
  %75 = load ptr, ptr %5, align 8, !tbaa !107
  %76 = load i32, ptr %15, align 4, !tbaa !12
  %77 = sext i32 %76 to i64
  %78 = getelementptr inbounds float, ptr %75, i64 %77
  %79 = load float, ptr %78, align 4, !tbaa !110
  %80 = load float, ptr %9, align 4, !tbaa !110
  %81 = fsub float %79, %80
  %82 = load float, ptr %11, align 4, !tbaa !110
  %83 = fmul float %81, %82
  %84 = fpext float %83 to double
  br label %86

85:                                               ; preds = %66
  br label %86

86:                                               ; preds = %85, %74
  %87 = phi double [ %84, %74 ], [ 0.000000e+00, %85 ]
  %88 = fptrunc double %87 to float
  %89 = load ptr, ptr %5, align 8, !tbaa !107
  %90 = load i32, ptr %15, align 4, !tbaa !12
  %91 = sext i32 %90 to i64
  %92 = getelementptr inbounds float, ptr %89, i64 %91
  store float %88, ptr %92, align 4, !tbaa !110
  br label %93

93:                                               ; preds = %86
  %94 = load i32, ptr %15, align 4, !tbaa !12
  %95 = add nsw i32 %94, 1
  store i32 %95, ptr %15, align 4, !tbaa !12
  br label %60, !llvm.loop !146

96:                                               ; preds = %60
  store float 1.000000e+09, ptr %10, align 4, !tbaa !110
  store float -1.000000e+09, ptr %8, align 4, !tbaa !110
  %97 = load ptr, ptr %3, align 8, !tbaa !15
  %98 = call ptr @Emb_ManSol(ptr noundef %97, i32 noundef 1)
  store ptr %98, ptr %6, align 8, !tbaa !107
  store i32 0, ptr %15, align 4, !tbaa !12
  br label %99

99:                                               ; preds = %126, %96
  %100 = load i32, ptr %15, align 4, !tbaa !12
  %101 = load ptr, ptr %3, align 8, !tbaa !15
  %102 = getelementptr inbounds nuw %struct.Emb_Man_t_, ptr %101, i32 0, i32 3
  %103 = load i32, ptr %102, align 8, !tbaa !32
  %104 = icmp slt i32 %100, %103
  br i1 %104, label %105, label %129

105:                                              ; preds = %99
  %106 = load float, ptr %10, align 4, !tbaa !110
  %107 = fptosi float %106 to i32
  %108 = load ptr, ptr %6, align 8, !tbaa !107
  %109 = load i32, ptr %15, align 4, !tbaa !12
  %110 = sext i32 %109 to i64
  %111 = getelementptr inbounds float, ptr %108, i64 %110
  %112 = load float, ptr %111, align 4, !tbaa !110
  %113 = fptosi float %112 to i32
  %114 = call i32 @Abc_MinInt(i32 noundef %107, i32 noundef %113)
  %115 = sitofp i32 %114 to float
  store float %115, ptr %10, align 4, !tbaa !110
  %116 = load float, ptr %8, align 4, !tbaa !110
  %117 = fptosi float %116 to i32
  %118 = load ptr, ptr %6, align 8, !tbaa !107
  %119 = load i32, ptr %15, align 4, !tbaa !12
  %120 = sext i32 %119 to i64
  %121 = getelementptr inbounds float, ptr %118, i64 %120
  %122 = load float, ptr %121, align 4, !tbaa !110
  %123 = fptosi float %122 to i32
  %124 = call i32 @Abc_MaxInt(i32 noundef %117, i32 noundef %123)
  %125 = sitofp i32 %124 to float
  store float %125, ptr %8, align 4, !tbaa !110
  br label %126

126:                                              ; preds = %105
  %127 = load i32, ptr %15, align 4, !tbaa !12
  %128 = add nsw i32 %127, 1
  store i32 %128, ptr %15, align 4, !tbaa !12
  br label %99, !llvm.loop !147

129:                                              ; preds = %99
  %130 = load float, ptr %8, align 4, !tbaa !110
  %131 = load float, ptr %10, align 4, !tbaa !110
  %132 = fsub float %130, %131
  %133 = fpext float %132 to double
  %134 = fdiv double 3.276700e+04, %133
  %135 = fptrunc double %134 to float
  store float %135, ptr %12, align 4, !tbaa !110
  store i32 0, ptr %15, align 4, !tbaa !12
  br label %136

136:                                              ; preds = %169, %129
  %137 = load i32, ptr %15, align 4, !tbaa !12
  %138 = load ptr, ptr %3, align 8, !tbaa !15
  %139 = getelementptr inbounds nuw %struct.Emb_Man_t_, ptr %138, i32 0, i32 3
  %140 = load i32, ptr %139, align 8, !tbaa !32
  %141 = icmp slt i32 %137, %140
  br i1 %141, label %142, label %172

142:                                              ; preds = %136
  %143 = load ptr, ptr %6, align 8, !tbaa !107
  %144 = load i32, ptr %15, align 4, !tbaa !12
  %145 = sext i32 %144 to i64
  %146 = getelementptr inbounds float, ptr %143, i64 %145
  %147 = load float, ptr %146, align 4, !tbaa !110
  %148 = fpext float %147 to double
  %149 = fcmp une double %148, 0.000000e+00
  br i1 %149, label %150, label %161

150:                                              ; preds = %142
  %151 = load ptr, ptr %6, align 8, !tbaa !107
  %152 = load i32, ptr %15, align 4, !tbaa !12
  %153 = sext i32 %152 to i64
  %154 = getelementptr inbounds float, ptr %151, i64 %153
  %155 = load float, ptr %154, align 4, !tbaa !110
  %156 = load float, ptr %10, align 4, !tbaa !110
  %157 = fsub float %155, %156
  %158 = load float, ptr %12, align 4, !tbaa !110
  %159 = fmul float %157, %158
  %160 = fpext float %159 to double
  br label %162

161:                                              ; preds = %142
  br label %162

162:                                              ; preds = %161, %150
  %163 = phi double [ %160, %150 ], [ 0.000000e+00, %161 ]
  %164 = fptrunc double %163 to float
  %165 = load ptr, ptr %6, align 8, !tbaa !107
  %166 = load i32, ptr %15, align 4, !tbaa !12
  %167 = sext i32 %166 to i64
  %168 = getelementptr inbounds float, ptr %165, i64 %167
  store float %164, ptr %168, align 4, !tbaa !110
  br label %169

169:                                              ; preds = %162
  %170 = load i32, ptr %15, align 4, !tbaa !12
  %171 = add nsw i32 %170, 1
  store i32 %171, ptr %15, align 4, !tbaa !12
  br label %136, !llvm.loop !148

172:                                              ; preds = %136
  %173 = load ptr, ptr %5, align 8, !tbaa !107
  %174 = load ptr, ptr %3, align 8, !tbaa !15
  %175 = getelementptr inbounds nuw %struct.Emb_Man_t_, ptr %174, i32 0, i32 3
  %176 = load i32, ptr %175, align 8, !tbaa !32
  %177 = call ptr @Gia_SortFloats(ptr noundef %173, ptr noundef null, i32 noundef %176)
  store ptr %177, ptr %13, align 8, !tbaa !70
  %178 = load ptr, ptr %6, align 8, !tbaa !107
  %179 = load ptr, ptr %3, align 8, !tbaa !15
  %180 = getelementptr inbounds nuw %struct.Emb_Man_t_, ptr %179, i32 0, i32 3
  %181 = load i32, ptr %180, align 8, !tbaa !32
  %182 = call ptr @Gia_SortFloats(ptr noundef %178, ptr noundef null, i32 noundef %181)
  store ptr %182, ptr %14, align 8, !tbaa !70
  %183 = load ptr, ptr %3, align 8, !tbaa !15
  %184 = getelementptr inbounds nuw %struct.Emb_Man_t_, ptr %183, i32 0, i32 3
  %185 = load i32, ptr %184, align 8, !tbaa !32
  %186 = mul nsw i32 2, %185
  %187 = sext i32 %186 to i64
  %188 = mul i64 2, %187
  %189 = call noalias ptr @malloc(i64 noundef %188) #14
  %190 = load ptr, ptr %3, align 8, !tbaa !15
  %191 = getelementptr inbounds nuw %struct.Emb_Man_t_, ptr %190, i32 0, i32 15
  store ptr %189, ptr %191, align 8, !tbaa !86
  store i32 0, ptr %15, align 4, !tbaa !12
  br label %192

192:                                              ; preds = %245, %172
  %193 = load i32, ptr %15, align 4, !tbaa !12
  %194 = load ptr, ptr %3, align 8, !tbaa !15
  %195 = getelementptr inbounds nuw %struct.Emb_Man_t_, ptr %194, i32 0, i32 3
  %196 = load i32, ptr %195, align 8, !tbaa !32
  %197 = icmp slt i32 %193, %196
  br i1 %197, label %198, label %248

198:                                              ; preds = %192
  %199 = load i32, ptr %15, align 4, !tbaa !12
  %200 = sitofp i32 %199 to double
  %201 = fmul double 1.000000e+00, %200
  %202 = fmul double %201, 3.276700e+04
  %203 = load ptr, ptr %3, align 8, !tbaa !15
  %204 = getelementptr inbounds nuw %struct.Emb_Man_t_, ptr %203, i32 0, i32 3
  %205 = load i32, ptr %204, align 8, !tbaa !32
  %206 = sitofp i32 %205 to double
  %207 = fdiv double %202, %206
  %208 = fptosi double %207 to i32
  %209 = trunc i32 %208 to i16
  %210 = load ptr, ptr %3, align 8, !tbaa !15
  %211 = getelementptr inbounds nuw %struct.Emb_Man_t_, ptr %210, i32 0, i32 15
  %212 = load ptr, ptr %211, align 8, !tbaa !86
  %213 = load ptr, ptr %13, align 8, !tbaa !70
  %214 = load i32, ptr %15, align 4, !tbaa !12
  %215 = sext i32 %214 to i64
  %216 = getelementptr inbounds i32, ptr %213, i64 %215
  %217 = load i32, ptr %216, align 4, !tbaa !12
  %218 = mul nsw i32 2, %217
  %219 = add nsw i32 %218, 0
  %220 = sext i32 %219 to i64
  %221 = getelementptr inbounds i16, ptr %212, i64 %220
  store i16 %209, ptr %221, align 2, !tbaa !149
  %222 = load i32, ptr %15, align 4, !tbaa !12
  %223 = sitofp i32 %222 to double
  %224 = fmul double 1.000000e+00, %223
  %225 = fmul double %224, 3.276700e+04
  %226 = load ptr, ptr %3, align 8, !tbaa !15
  %227 = getelementptr inbounds nuw %struct.Emb_Man_t_, ptr %226, i32 0, i32 3
  %228 = load i32, ptr %227, align 8, !tbaa !32
  %229 = sitofp i32 %228 to double
  %230 = fdiv double %225, %229
  %231 = fptosi double %230 to i32
  %232 = trunc i32 %231 to i16
  %233 = load ptr, ptr %3, align 8, !tbaa !15
  %234 = getelementptr inbounds nuw %struct.Emb_Man_t_, ptr %233, i32 0, i32 15
  %235 = load ptr, ptr %234, align 8, !tbaa !86
  %236 = load ptr, ptr %14, align 8, !tbaa !70
  %237 = load i32, ptr %15, align 4, !tbaa !12
  %238 = sext i32 %237 to i64
  %239 = getelementptr inbounds i32, ptr %236, i64 %238
  %240 = load i32, ptr %239, align 4, !tbaa !12
  %241 = mul nsw i32 2, %240
  %242 = add nsw i32 %241, 1
  %243 = sext i32 %242 to i64
  %244 = getelementptr inbounds i16, ptr %235, i64 %243
  store i16 %232, ptr %244, align 2, !tbaa !149
  br label %245

245:                                              ; preds = %198
  %246 = load i32, ptr %15, align 4, !tbaa !12
  %247 = add nsw i32 %246, 1
  store i32 %247, ptr %15, align 4, !tbaa !12
  br label %192, !llvm.loop !151

248:                                              ; preds = %192
  %249 = load ptr, ptr %13, align 8, !tbaa !70
  %250 = icmp ne ptr %249, null
  br i1 %250, label %251, label %253

251:                                              ; preds = %248
  %252 = load ptr, ptr %13, align 8, !tbaa !70
  call void @free(ptr noundef %252) #12
  store ptr null, ptr %13, align 8, !tbaa !70
  br label %254

253:                                              ; preds = %248
  br label %254

254:                                              ; preds = %253, %251
  %255 = load ptr, ptr %14, align 8, !tbaa !70
  %256 = icmp ne ptr %255, null
  br i1 %256, label %257, label %259

257:                                              ; preds = %254
  %258 = load ptr, ptr %14, align 8, !tbaa !70
  call void @free(ptr noundef %258) #12
  store ptr null, ptr %14, align 8, !tbaa !70
  br label %260

259:                                              ; preds = %254
  br label %260

260:                                              ; preds = %259, %257
  store i32 0, ptr %16, align 4
  br label %261

261:                                              ; preds = %260, %19
  call void @llvm.lifetime.end.p0(i64 4, ptr %15) #12
  call void @llvm.lifetime.end.p0(i64 8, ptr %14) #12
  call void @llvm.lifetime.end.p0(i64 8, ptr %13) #12
  call void @llvm.lifetime.end.p0(i64 4, ptr %12) #12
  call void @llvm.lifetime.end.p0(i64 4, ptr %11) #12
  call void @llvm.lifetime.end.p0(i64 4, ptr %10) #12
  call void @llvm.lifetime.end.p0(i64 4, ptr %9) #12
  call void @llvm.lifetime.end.p0(i64 4, ptr %8) #12
  call void @llvm.lifetime.end.p0(i64 4, ptr %7) #12
  call void @llvm.lifetime.end.p0(i64 8, ptr %6) #12
  call void @llvm.lifetime.end.p0(i64 8, ptr %5) #12
  %262 = load i32, ptr %16, align 4
  switch i32 %262, label %264 [
    i32 0, label %263
    i32 1, label %263
  ]

263:                                              ; preds = %261, %261
  ret void

264:                                              ; preds = %261
  unreachable
}