; Function Attrs: nounwind uwtable
define void @Emb_ManDerivePlacement(ptr noundef captures(none) %0, i32 noundef %1) local_unnamed_addr #1 {
  %.not = icmp eq i32 %1, 2
  br i1 %.not, label %3, label %78

3:                                                ; preds = %2
  %4 = getelementptr i8, ptr %0, i64 24
  %5 = getelementptr i8, ptr %0, i64 88
  %.val81 = load ptr, ptr %5, align 8, !tbaa !80
  %6 = load i32, ptr %4, align 8, !tbaa !53
  %7 = icmp sgt i32 %6, 0
  br i1 %7, label %.lr.ph.preheader, label %._crit_edge90.thread

.lr.ph.preheader:                                 ; preds = %3
  %wide.trip.count = zext nneg i32 %6 to i64
  br label %.lr.ph

.lr.ph:                                           ; preds = %.lr.ph.preheader, %.lr.ph
  %indvars.iv = phi i64 [ 0, %.lr.ph.preheader ], [ %indvars.iv.next, %.lr.ph ]
  %.06983 = phi float [ -1.000000e+09, %.lr.ph.preheader ], [ %16, %.lr.ph ]
  %.07282 = phi float [ 1.000000e+09, %.lr.ph.preheader ], [ %13, %.lr.ph ]
  %8 = fptosi float %.07282 to i32
  %9 = getelementptr inbounds nuw float, ptr %.val81, i64 %indvars.iv
  %10 = load float, ptr %9, align 4, !tbaa !106
  %11 = fptosi float %10 to i32
  %12 = tail call noundef i32 @llvm.smin.i32(i32 %8, i32 %11)
  %13 = sitofp i32 %12 to float
  %14 = fptosi float %.06983 to i32
  %15 = tail call noundef i32 @llvm.smax.i32(i32 %14, i32 %11)
  %16 = sitofp i32 %15 to float
  %indvars.iv.next = add nuw nsw i64 %indvars.iv, 1
  %exitcond.not = icmp eq i64 %indvars.iv.next, %wide.trip.count
  br i1 %exitcond.not, label %._crit_edge, label %.lr.ph, !llvm.loop !138

._crit_edge:                                      ; preds = %.lr.ph
  %17 = fsub float %16, %13
  %18 = fdiv float 3.276700e+04, %17
  %wide.trip.count114 = zext nneg i32 %6 to i64
  br label %.lr.ph89

.lr.ph89:                                         ; preds = %._crit_edge, %.lr.ph89
  %indvars.iv111 = phi i64 [ 0, %._crit_edge ], [ %indvars.iv.next112, %.lr.ph89 ]
  %19 = getelementptr inbounds nuw float, ptr %.val81, i64 %indvars.iv111
  %20 = load float, ptr %19, align 4, !tbaa !106
  %21 = fcmp une float %20, 0.000000e+00
  %22 = fsub float %20, %13
  %23 = fmul float %18, %22
  %24 = select i1 %21, float %23, float 0.000000e+00
  store float %24, ptr %19, align 4, !tbaa !106
  %indvars.iv.next112 = add nuw nsw i64 %indvars.iv111, 1
  %exitcond115.not = icmp eq i64 %indvars.iv.next112, %wide.trip.count114
  br i1 %exitcond115.not, label %._crit_edge90, label %.lr.ph89, !llvm.loop !139

._crit_edge90.thread:                             ; preds = %3
  %25 = sext i32 %6 to i64
  %26 = getelementptr inbounds float, ptr %.val81, i64 %25
  br label %._crit_edge102

._crit_edge90:                                    ; preds = %.lr.ph89
  %27 = zext nneg i32 %6 to i64
  %28 = getelementptr inbounds nuw float, ptr %.val81, i64 %27
  %wide.trip.count119 = zext nneg i32 %6 to i64
  br label %.lr.ph95

.lr.ph95:                                         ; preds = %._crit_edge90, %.lr.ph95
  %indvars.iv116 = phi i64 [ 0, %._crit_edge90 ], [ %indvars.iv.next117, %.lr.ph95 ]
  %.07092 = phi float [ -1.000000e+09, %._crit_edge90 ], [ %37, %.lr.ph95 ]
  %.07191 = phi float [ 1.000000e+09, %._crit_edge90 ], [ %34, %.lr.ph95 ]
  %29 = fptosi float %.07191 to i32
  %30 = getelementptr inbounds nuw float, ptr %28, i64 %indvars.iv116
  %31 = load float, ptr %30, align 4, !tbaa !106
  %32 = fptosi float %31 to i32
  %33 = tail call noundef i32 @llvm.smin.i32(i32 %29, i32 %32)
  %34 = sitofp i32 %33 to float
  %35 = fptosi float %.07092 to i32
  %36 = tail call noundef i32 @llvm.smax.i32(i32 %35, i32 %32)
  %37 = sitofp i32 %36 to float
  %indvars.iv.next117 = add nuw nsw i64 %indvars.iv116, 1
  %exitcond120.not = icmp eq i64 %indvars.iv.next117, %wide.trip.count119
  br i1 %exitcond120.not, label %._crit_edge96, label %.lr.ph95, !llvm.loop !140

._crit_edge96:                                    ; preds = %.lr.ph95
  %38 = fsub float %37, %34
  %39 = fdiv float 3.276700e+04, %38
  %wide.trip.count124 = zext nneg i32 %6 to i64
  br label %.lr.ph101

.lr.ph101:                                        ; preds = %._crit_edge96, %.lr.ph101
  %indvars.iv121 = phi i64 [ 0, %._crit_edge96 ], [ %indvars.iv.next122, %.lr.ph101 ]
  %40 = getelementptr inbounds nuw float, ptr %28, i64 %indvars.iv121
  %41 = load float, ptr %40, align 4, !tbaa !106
  %42 = fcmp une float %41, 0.000000e+00
  %43 = fsub float %41, %34
  %44 = fmul float %39, %43
  %45 = select i1 %42, float %44, float 0.000000e+00
  store float %45, ptr %40, align 4, !tbaa !106
  %indvars.iv.next122 = add nuw nsw i64 %indvars.iv121, 1
  %exitcond125.not = icmp eq i64 %indvars.iv.next122, %wide.trip.count124
  br i1 %exitcond125.not, label %._crit_edge102, label %.lr.ph101, !llvm.loop !141

._crit_edge102:                                   ; preds = %.lr.ph101, %._crit_edge90.thread
  %46 = phi ptr [ %26, %._crit_edge90.thread ], [ %28, %.lr.ph101 ]
  %47 = tail call ptr @Gia_SortFloats(ptr noundef %.val81, ptr noundef null, i32 noundef %6) #27
  %48 = load i32, ptr %4, align 8, !tbaa !53
  %49 = tail call ptr @Gia_SortFloats(ptr noundef %46, ptr noundef null, i32 noundef %48) #27
  %50 = load i32, ptr %4, align 8, !tbaa !53
  %51 = shl nsw i32 %50, 1
  %52 = sext i32 %51 to i64
  %53 = shl nsw i64 %52, 1
  %54 = tail call noalias ptr @malloc(i64 noundef %53) #29
  %55 = getelementptr inbounds nuw i8, ptr %0, i64 96
  store ptr %54, ptr %55, align 8, !tbaa !78
  %56 = icmp sgt i32 %50, 0
  br i1 %56, label %.lr.ph105, label %._crit_edge106

.lr.ph105:                                        ; preds = %._crit_edge102
  %57 = uitofp nneg i32 %50 to double
  %wide.trip.count129 = zext nneg i32 %50 to i64
  br label %58

58:                                               ; preds = %.lr.ph105, %58
  %indvars.iv126 = phi i64 [ 0, %.lr.ph105 ], [ %indvars.iv.next127, %58 ]
  %59 = trunc nuw nsw i64 %indvars.iv126 to i32
  %60 = uitofp nneg i32 %59 to double
  %61 = fmul double %60, 3.276700e+04
  %62 = fdiv double %61, %57
  %63 = fptosi double %62 to i32
  %64 = trunc i32 %63 to i16
  %65 = getelementptr inbounds nuw i32, ptr %47, i64 %indvars.iv126
  %66 = load i32, ptr %65, align 4, !tbaa !9
  %67 = shl nsw i32 %66, 1
  %68 = sext i32 %67 to i64
  %69 = getelementptr inbounds i16, ptr %54, i64 %68
  store i16 %64, ptr %69, align 2, !tbaa !142
  %70 = getelementptr inbounds nuw i32, ptr %49, i64 %indvars.iv126
  %71 = load i32, ptr %70, align 4, !tbaa !9
  %72 = shl nsw i32 %71, 1
  %73 = or disjoint i32 %72, 1
  %74 = sext i32 %73 to i64
  %75 = getelementptr inbounds i16, ptr %54, i64 %74
  store i16 %64, ptr %75, align 2, !tbaa !142
  %indvars.iv.next127 = add nuw nsw i64 %indvars.iv126, 1
  %exitcond130.not = icmp eq i64 %indvars.iv.next127, %wide.trip.count129
  br i1 %exitcond130.not, label %._crit_edge106.thread, label %58, !llvm.loop !144

._crit_edge106:                                   ; preds = %._crit_edge102
  %.not77 = icmp eq ptr %47, null
  br i1 %.not77, label %76, label %._crit_edge106.thread

._crit_edge106.thread:                            ; preds = %58, %._crit_edge106
  tail call void @free(ptr noundef nonnull %47) #27
  br label %76

76:                                               ; preds = %._crit_edge106, %._crit_edge106.thread
  %.not78 = icmp eq ptr %49, null
  br i1 %.not78, label %78, label %77

77:                                               ; preds = %76
  tail call void @free(ptr noundef nonnull %49) #27
  br label %78

78:                                               ; preds = %77, %76, %2
  ret void
}